target datalayout = "e-m:e-p270:32:32-p271:32:32-p272:64:64-i64:64-i128:128-f80:128-n8:16:32:64-S128"
target triple = "x86_64-pc-linux-gnu"

%struct.ident_t = type { i32, i32, i32, i32, ptr }
%"struct.gmx::GridSet::DomainSetup" = type { i32, i8, i8, %"struct.std::array", ptr }
%"struct.std::array" = type { [3 x i8] }
%"class.gmx::GridSet" = type { %"struct.gmx::GridSet::DomainSetup", %"class.std::vector", i32, %"struct.gmx::GridSetData", i32, i8, i8, i32, [3 x [3 x float]], i32, i32, %"class.std::vector.2", i32, %"class.std::vector.7" }
%"class.std::vector" = type { %"struct.std::_Vector_base" }
%"struct.std::_Vector_base" = type { %"struct.std::_Vector_base<gmx::Grid, std::allocator<gmx::Grid>>::_Vector_impl" }
%"struct.std::_Vector_base<gmx::Grid, std::allocator<gmx::Grid>>::_Vector_impl" = type { %"struct.std::_Vector_base<gmx::Grid, std::allocator<gmx::Grid>>::_Vector_impl_data" }
%"struct.std::_Vector_base<gmx::Grid, std::allocator<gmx::Grid>>::_Vector_impl_data" = type { ptr, ptr, ptr }
%"struct.gmx::GridSetData" = type { %"class.std::vector.0", %"class.std::vector.0" }
%"class.std::vector.0" = type { %"struct.std::_Vector_base.1" }
%"struct.std::_Vector_base.1" = type { %"struct.std::_Vector_base<int, gmx::Allocator<int, gmx::HostAllocationPolicy>>::_Vector_impl" }
%"struct.std::_Vector_base<int, gmx::Allocator<int, gmx::HostAllocationPolicy>>::_Vector_impl" = type { %"class.gmx::Allocator.base", %"struct.std::_Vector_base<int, gmx::Allocator<int, gmx::HostAllocationPolicy>>::_Vector_impl_data" }
%"class.gmx::Allocator.base" = type { %"class.gmx::HostAllocationPolicy.base" }
%"class.gmx::HostAllocationPolicy.base" = type <{ i32, i8 }>
%"struct.std::_Vector_base<int, gmx::Allocator<int, gmx::HostAllocationPolicy>>::_Vector_impl_data" = type { ptr, ptr, ptr }
%"class.std::vector.2" = type { %"struct.std::_Vector_base.3" }
%"struct.std::_Vector_base.3" = type { %"struct.std::_Vector_base<gmx::GridWork, std::allocator<gmx::GridWork>>::_Vector_impl" }
%"struct.std::_Vector_base<gmx::GridWork, std::allocator<gmx::GridWork>>::_Vector_impl" = type { %"struct.std::_Vector_base<gmx::GridWork, std::allocator<gmx::GridWork>>::_Vector_impl_data" }
%"struct.std::_Vector_base<gmx::GridWork, std::allocator<gmx::GridWork>>::_Vector_impl_data" = type { ptr, ptr, ptr }
%"class.std::vector.7" = type { %"struct.std::_Vector_base.8" }
%"struct.std::_Vector_base.8" = type { %"struct.std::_Vector_base<int, std::allocator<int>>::_Vector_impl" }
%"struct.std::_Vector_base<int, std::allocator<int>>::_Vector_impl" = type { %"struct.std::_Vector_base<int, std::allocator<int>>::_Vector_impl_data" }
%"struct.std::_Vector_base<int, std::allocator<int>>::_Vector_impl_data" = type { ptr, ptr, ptr }
%"class.gmx::Grid" = type <{ %"struct.gmx::Grid::Geometry", i32, %"struct.gmx::GridDimensions", i32, i32, i32, i32, i32, [4 x i8], %"class.std::vector.0", %"class.std::vector.0", %"class.std::vector.7", %"class.std::vector.13", %"class.std::vector.18", %"class.std::vector.18", %"class.gmx::ArrayRef", %"class.std::vector.21", ptr, %"class.std::vector.7", %"class.std::vector.24", i32, [4 x i8] }>
%"struct.gmx::Grid::Geometry" = type { i8, i32, i32, i32, i32, i32 }
%"struct.gmx::GridDimensions" = type { %"class.gmx::BasicVector.12", %"class.gmx::BasicVector.12", %"class.gmx::BasicVector.12", float, float, [2 x float], [2 x float], [2 x i32] }
%"class.gmx::BasicVector.12" = type { [3 x float] }
%"class.std::vector.13" = type { %"struct.std::_Vector_base.14" }
%"struct.std::_Vector_base.14" = type { %"struct.std::_Vector_base<gmx::BoundingBox1D, std::allocator<gmx::BoundingBox1D>>::_Vector_impl" }
%"struct.std::_Vector_base<gmx::BoundingBox1D, std::allocator<gmx::BoundingBox1D>>::_Vector_impl" = type { %"struct.std::_Vector_base<gmx::BoundingBox1D, std::allocator<gmx::BoundingBox1D>>::_Vector_impl_data" }
%"struct.std::_Vector_base<gmx::BoundingBox1D, std::allocator<gmx::BoundingBox1D>>::_Vector_impl_data" = type { ptr, ptr, ptr }
%"class.std::vector.18" = type { %"struct.std::_Vector_base.19" }
%"struct.std::_Vector_base.19" = type { %"struct.std::_Vector_base<gmx::BoundingBox, gmx::Allocator<gmx::BoundingBox, gmx::AlignedAllocationPolicy>>::_Vector_impl" }
%"struct.std::_Vector_base<gmx::BoundingBox, gmx::Allocator<gmx::BoundingBox, gmx::AlignedAllocationPolicy>>::_Vector_impl" = type { %"struct.std::_Vector_base<gmx::BoundingBox, gmx::Allocator<gmx::BoundingBox, gmx::AlignedAllocationPolicy>>::_Vector_impl_data" }
%"struct.std::_Vector_base<gmx::BoundingBox, gmx::Allocator<gmx::BoundingBox, gmx::AlignedAllocationPolicy>>::_Vector_impl_data" = type { ptr, ptr, ptr }
%"class.gmx::ArrayRef" = type { %"struct.gmx::ArrayRefIter", %"struct.gmx::ArrayRefIter" }
%"struct.gmx::ArrayRefIter" = type { ptr }
%"class.std::vector.21" = type { %"struct.std::_Vector_base.22" }
%"struct.std::_Vector_base.22" = type { %"struct.std::_Vector_base<float, gmx::Allocator<float, gmx::AlignedAllocationPolicy>>::_Vector_impl" }
%"struct.std::_Vector_base<float, gmx::Allocator<float, gmx::AlignedAllocationPolicy>>::_Vector_impl" = type { %"struct.std::_Vector_base<float, gmx::Allocator<float, gmx::AlignedAllocationPolicy>>::_Vector_impl_data" }
%"struct.std::_Vector_base<float, gmx::Allocator<float, gmx::AlignedAllocationPolicy>>::_Vector_impl_data" = type { ptr, ptr, ptr }
%"class.std::vector.24" = type { %"struct.std::_Vector_base.25" }
%"struct.std::_Vector_base.25" = type { %"struct.std::_Vector_base<unsigned int, std::allocator<unsigned int>>::_Vector_impl" }
%"struct.std::_Vector_base<unsigned int, std::allocator<unsigned int>>::_Vector_impl" = type { %"struct.std::_Vector_base<unsigned int, std::allocator<unsigned int>>::_Vector_impl_data" }
%"struct.std::_Vector_base<unsigned int, std::allocator<unsigned int>>::_Vector_impl_data" = type { ptr, ptr, ptr }

@1 = private unnamed_addr constant %struct.ident_t { i32 0, i32 514, i32 0, i32 22, ptr @0 }, align 8

; Function Attrs: noinline noreturn nounwind uwtable
define linkonce_odr hidden void @__clang_call_terminate(ptr noundef %0) #7 comdat {
  %2 = call ptr @__cxa_begin_catch(ptr %0) #15
  call void @_ZSt9terminatev() #17
  unreachable
}

; Function Attrs: mustprogress nounwind uwtable
define linkonce_odr noundef nonnull align 4 dereferenceable(4) ptr @_ZNSt6vectorIiN3gmx9AllocatorIiNS0_20HostAllocationPolicyEEEEixEm(ptr noundef nonnull align 8 dereferenceable(32) %0, i64 noundef %1) #1 comdat align 2 {
  %3 = alloca ptr, align 8
  %4 = alloca i64, align 8
  store ptr %0, ptr %3, align 8, !tbaa !86
  store i64 %1, ptr %4, align 8, !tbaa !31
  %5 = load ptr, ptr %3, align 8
  %6 = getelementptr inbounds nuw %"struct.std::_Vector_base.1", ptr %5, i32 0, i32 0
  %7 = getelementptr inbounds i8, ptr %6, i64 8
  %8 = getelementptr inbounds nuw %"struct.std::_Vector_base<int, gmx::Allocator<int, gmx::HostAllocationPolicy>>::_Vector_impl_data", ptr %7, i32 0, i32 0
  %9 = load ptr, ptr %8, align 8, !tbaa !108
  %10 = load i64, ptr %4, align 8, !tbaa !31
  %11 = getelementptr inbounds nuw i32, ptr %9, i64 %10
  ret ptr %11
}

; Function Attrs: mustprogress nounwind uwtable
define linkonce_odr noundef i32 @_ZNK3gmx4Grid15numAtomsPerCellEv(ptr noundef nonnull align 8 dereferenceable(380) %0) #1 comdat align 2 {
  %2 = alloca ptr, align 8
  store ptr %0, ptr %2, align 8, !tbaa !88
  %3 = load ptr, ptr %2, align 8
  %4 = getelementptr inbounds nuw %"class.gmx::Grid", ptr %3, i32 0, i32 0
  %5 = getelementptr inbounds nuw %"struct.gmx::Grid::Geometry", ptr %4, i32 0, i32 3
  %6 = load i32, ptr %5, align 4, !tbaa !268
  ret i32 %6
}

; Function Attrs: mustprogress nounwind uwtable
define linkonce_odr noundef i32 @_ZNK3gmx4Grid8numCellsEv(ptr noundef nonnull align 8 dereferenceable(380) %0) #1 comdat align 2 {
  %2 = alloca ptr, align 8
  store ptr %0, ptr %2, align 8, !tbaa !88
  %3 = load ptr, ptr %2, align 8
  %4 = getelementptr inbounds nuw %"class.gmx::Grid", ptr %3, i32 0, i32 3
  %5 = load i32, ptr %4, align 8, !tbaa !267
  ret i32 %5
}

; Function Attrs: alwaysinline norecurse nounwind uwtable
define internal void @_ZN3gmx7GridSet17setLocalAtomOrderEv.omp_outlined(ptr noalias noundef %0, ptr noalias noundef %1, ptr noundef nonnull align 8 dereferenceable(380) %2, ptr noundef %3) #14 personality ptr @__gxx_personality_v0 {
  %5 = alloca ptr, align 8
  %6 = alloca ptr, align 8
  %7 = alloca ptr, align 8
  %8 = alloca ptr, align 8
  %9 = alloca ptr, align 8
  %10 = alloca i32, align 4
  %11 = alloca i32, align 4
  %12 = alloca i32, align 4
  %13 = alloca i32, align 4
  %14 = alloca i32, align 4
  %15 = alloca i32, align 4
  %16 = alloca i32, align 4
  %17 = alloca i32, align 4
  %18 = alloca i32, align 4
  store ptr %0, ptr %5, align 8, !tbaa !93
  store ptr %1, ptr %6, align 8, !tbaa !93
  store ptr %2, ptr %7, align 8, !tbaa !88
  store ptr %3, ptr %8, align 8, !tbaa !35
  %19 = load ptr, ptr %7, align 8, !tbaa !88
  %20 = load ptr, ptr %8, align 8, !tbaa !35
  store ptr %19, ptr %9, align 8
  call void @llvm.lifetime.start.p0(i64 4, ptr %10) #15
  call void @llvm.lifetime.start.p0(i64 4, ptr %11) #15
  %21 = load ptr, ptr %9, align 8, !tbaa !88
  %22 = invoke noundef i32 @_ZNK3gmx4Grid8numCellsEv(ptr noundef nonnull align 8 dereferenceable(380) %21)
          to label %23 unwind label %78

23:                                               ; preds = %4
  %24 = load ptr, ptr %9, align 8, !tbaa !88
  %25 = invoke noundef i32 @_ZNK3gmx4Grid15numAtomsPerCellEv(ptr noundef nonnull align 8 dereferenceable(380) %24)
          to label %26 unwind label %78

26:                                               ; preds = %23
  %27 = mul nsw i32 %22, %25
  store i32 %27, ptr %11, align 4, !tbaa !25
  call void @llvm.lifetime.start.p0(i64 4, ptr %12) #15
  %28 = load i32, ptr %11, align 4, !tbaa !25
  %29 = sub nsw i32 %28, 0
  %30 = sdiv i32 %29, 1
  %31 = sub nsw i32 %30, 1
  store i32 %31, ptr %12, align 4, !tbaa !25
  call void @llvm.lifetime.start.p0(i64 4, ptr %13) #15
  store i32 0, ptr %13, align 4, !tbaa !25
  call void @llvm.lifetime.end.p0(i64 4, ptr %13) #15
  %32 = load i32, ptr %11, align 4, !tbaa !25
  %33 = icmp slt i32 0, %32
  br i1 %33, label %34, label %77

34:                                               ; preds = %26
  call void @llvm.lifetime.start.p0(i64 4, ptr %14) #15
  store i32 0, ptr %14, align 4, !tbaa !25
  call void @llvm.lifetime.start.p0(i64 4, ptr %15) #15
  %35 = load i32, ptr %12, align 4, !tbaa !25
  store i32 %35, ptr %15, align 4, !tbaa !25
  call void @llvm.lifetime.start.p0(i64 4, ptr %16) #15
  store i32 1, ptr %16, align 4, !tbaa !25
  call void @llvm.lifetime.start.p0(i64 4, ptr %17) #15
  store i32 0, ptr %17, align 4, !tbaa !25
  call void @llvm.lifetime.start.p0(i64 4, ptr %18) #15
  %36 = load ptr, ptr %5, align 8
  %37 = load i32, ptr %36, align 4, !tbaa !25
  call void @__kmpc_for_static_init_4(ptr @1, i32 %37, i32 34, ptr %17, ptr %14, ptr %15, ptr %16, i32 1, i32 1)
  %38 = load i32, ptr %15, align 4, !tbaa !25
  %39 = load i32, ptr %12, align 4, !tbaa !25
  %40 = icmp sgt i32 %38, %39
  br i1 %40, label %41, label %43

41:                                               ; preds = %34
  %42 = load i32, ptr %12, align 4, !tbaa !25
  br label %45

43:                                               ; preds = %34
  %44 = load i32, ptr %15, align 4, !tbaa !25
  br label %45

45:                                               ; preds = %43, %41
  %46 = phi i32 [ %42, %41 ], [ %44, %43 ]
  store i32 %46, ptr %15, align 4, !tbaa !25
  %47 = load i32, ptr %14, align 4, !tbaa !25
  store i32 %47, ptr %10, align 4, !tbaa !25
  br label %48

48:                                               ; preds = %70, %45
  %49 = load i32, ptr %10, align 4, !tbaa !25
  %50 = load i32, ptr %15, align 4, !tbaa !25
  %51 = icmp sle i32 %49, %50
  br i1 %51, label %53, label %52

52:                                               ; preds = %48
  br label %73

53:                                               ; preds = %48
  %54 = load i32, ptr %10, align 4, !tbaa !25
  %55 = mul nsw i32 %54, 1
  %56 = add nsw i32 0, %55
  store i32 %56, ptr %18, align 4, !tbaa !25
  %57 = load i32, ptr %18, align 4, !tbaa !25
  %58 = getelementptr inbounds nuw %"class.gmx::GridSet", ptr %20, i32 0, i32 3
  %59 = getelementptr inbounds nuw %"struct.gmx::GridSetData", ptr %58, i32 0, i32 1
  %60 = load i32, ptr %18, align 4, !tbaa !25
  %61 = sext i32 %60 to i64
  %62 = call noundef nonnull align 4 dereferenceable(4) ptr @_ZNSt6vectorIiN3gmx9AllocatorIiNS0_20HostAllocationPolicyEEEEixEm(ptr noundef nonnull align 8 dereferenceable(32) %59, i64 noundef %61) #15
  store i32 %57, ptr %62, align 4, !tbaa !25
  %63 = load i32, ptr %18, align 4, !tbaa !25
  %64 = getelementptr inbounds nuw %"class.gmx::GridSet", ptr %20, i32 0, i32 3
  %65 = getelementptr inbounds nuw %"struct.gmx::GridSetData", ptr %64, i32 0, i32 0
  %66 = load i32, ptr %18, align 4, !tbaa !25
  %67 = sext i32 %66 to i64
  %68 = call noundef nonnull align 4 dereferenceable(4) ptr @_ZNSt6vectorIiN3gmx9AllocatorIiNS0_20HostAllocationPolicyEEEEixEm(ptr noundef nonnull align 8 dereferenceable(32) %65, i64 noundef %67) #15
  store i32 %63, ptr %68, align 4, !tbaa !25
  br label %69

69:                                               ; preds = %53
  br label %70

70:                                               ; preds = %69
  %71 = load i32, ptr %10, align 4, !tbaa !25
  %72 = add nsw i32 %71, 1
  store i32 %72, ptr %10, align 4, !tbaa !25
  br label %48

73:                                               ; preds = %52
  br label %74

74:                                               ; preds = %73
  %75 = load ptr, ptr %5, align 8
  %76 = load i32, ptr %75, align 4, !tbaa !25
  call void @__kmpc_for_static_fini(ptr @1, i32 %76)
  call void @llvm.lifetime.end.p0(i64 4, ptr %18) #15
  call void @llvm.lifetime.end.p0(i64 4, ptr %17) #15
  call void @llvm.lifetime.end.p0(i64 4, ptr %16) #15
  call void @llvm.lifetime.end.p0(i64 4, ptr %15) #15
  call void @llvm.lifetime.end.p0(i64 4, ptr %14) #15
  br label %77

77:                                               ; preds = %74, %26
  call void @llvm.lifetime.end.p0(i64 4, ptr %12) #15
  call void @llvm.lifetime.end.p0(i64 4, ptr %11) #15
  call void @llvm.lifetime.end.p0(i64 4, ptr %10) #15
  ret void

78:                                               ; preds = %23, %4
  %79 = landingpad { ptr, i32 }
          catch ptr null
  %80 = extractvalue { ptr, i32 } %79, 0
  call void @__clang_call_terminate(ptr %80) #17
  unreachable
}