; Function Attrs: alwaysinline norecurse nounwind uwtable
define internal void @_ZN3gmx7GridSet17setLocalAtomOrderEv.omp_outlined(ptr noalias noundef readonly captures(none) %0, ptr noalias readnone captures(none) %1, ptr noundef nonnull readonly align 8 captures(none) dereferenceable(380) %2, ptr noundef readonly captures(none) %3) #15 personality ptr @__gxx_personality_v0 {
  %5 = alloca i32, align 4
  %6 = alloca i32, align 4
  %7 = alloca i32, align 4
  %8 = alloca i32, align 4
  %9 = getelementptr inbounds nuw i8, ptr %2, i64 96
  %10 = load i32, ptr %9, align 8, !tbaa !125
  %11 = getelementptr inbounds nuw i8, ptr %2, i64 12
  %12 = load i32, ptr %11, align 4, !tbaa !126
  %13 = mul nsw i32 %12, %10
  %14 = icmp sgt i32 %13, 0
  br i1 %14, label %15, label %32

15:                                               ; preds = %4
  %16 = add nsw i32 %13, -1
  call void @llvm.lifetime.start.p0(i64 4, ptr nonnull %5) #16
  store i32 0, ptr %5, align 4, !tbaa !14
  call void @llvm.lifetime.start.p0(i64 4, ptr nonnull %6) #16
  store i32 %16, ptr %6, align 4, !tbaa !14
  call void @llvm.lifetime.start.p0(i64 4, ptr nonnull %7) #16
  store i32 1, ptr %7, align 4, !tbaa !14
  call void @llvm.lifetime.start.p0(i64 4, ptr nonnull %8) #16
  store i32 0, ptr %8, align 4, !tbaa !14
  %17 = load i32, ptr %0, align 4, !tbaa !14
  call void @__kmpc_for_static_init_4(ptr nonnull @1, i32 %17, i32 34, ptr nonnull %8, ptr nonnull %5, ptr nonnull %6, ptr nonnull %7, i32 1, i32 1)
  %18 = load i32, ptr %6, align 4, !tbaa !14
  %19 = call i32 @llvm.smin.i32(i32 %18, i32 %16)
  store i32 %19, ptr %6, align 4, !tbaa !14
  %20 = load i32, ptr %5, align 4, !tbaa !14
  %.not17 = icmp sgt i32 %20, %19
  br i1 %.not17, label %._crit_edge, label %.lr.ph

.lr.ph:                                           ; preds = %15
  %21 = getelementptr inbounds nuw i8, ptr %3, i64 96
  %22 = load ptr, ptr %21, align 8, !tbaa !25
  %23 = getelementptr inbounds nuw i8, ptr %3, i64 64
  %24 = load ptr, ptr %23, align 8, !tbaa !25
  %25 = sext i32 %20 to i64
  br label %26

26:                                               ; preds = %.lr.ph, %26
  %indvars.iv = phi i64 [ %25, %.lr.ph ], [ %indvars.iv.next, %26 ]
  %27 = getelementptr inbounds nuw i32, ptr %22, i64 %indvars.iv
  %28 = trunc nsw i64 %indvars.iv to i32
  store i32 %28, ptr %27, align 4, !tbaa !14
  %29 = getelementptr inbounds nuw i32, ptr %24, i64 %indvars.iv
  store i32 %28, ptr %29, align 4, !tbaa !14
  %indvars.iv.next = add nsw i64 %indvars.iv, 1
  %30 = load i32, ptr %6, align 4, !tbaa !14
  %31 = sext i32 %30 to i64
  %.not.not = icmp slt i64 %indvars.iv, %31
  br i1 %.not.not, label %26, label %._crit_edge

._crit_edge:                                      ; preds = %26, %15
  call void @__kmpc_for_static_fini(ptr nonnull @1, i32 %17)
  call void @llvm.lifetime.end.p0(i64 4, ptr nonnull %8) #16
  call void @llvm.lifetime.end.p0(i64 4, ptr nonnull %7) #16
  call void @llvm.lifetime.end.p0(i64 4, ptr nonnull %6) #16
  call void @llvm.lifetime.end.p0(i64 4, ptr nonnull %5) #16
  br label %32

32:                                               ; preds = %._crit_edge, %4
  ret void
}